; Function Attrs: mustprogress uwtable
define hidden noundef zeroext i1 @_ZN10sls_engine7what_ifEP9func_declRKjRK3mpzRdRjRS4_(ptr noundef nonnull align 8 dereferenceable(1512) %this, ptr noundef %fd, ptr nocapture noundef nonnull readonly align 4 dereferenceable(4) %fd_inx, ptr noundef nonnull align 8 dereferenceable(16) %temp, ptr nocapture noundef nonnull align 8 dereferenceable(8) %best_score, ptr nocapture noundef nonnull writeonly align 4 dereferenceable(4) %best_const, ptr noundef nonnull align 8 dereferenceable(16) %best_value) local_unnamed_addr #3 align 2 {
entry:
  %m_early_prune = getelementptr inbounds i8, ptr %this, i64 1500
  %0 = load i32, ptr %m_early_prune, align 4
  %tobool.not = icmp eq i32 %0, 0
  br i1 %tobool.not, label %if.else, label %if.then

if.then:                                          ; preds = %entry
  %m_incr_evals.i = getelementptr inbounds i8, ptr %this, i64 44
  %1 = load i32, ptr %m_incr_evals.i, align 4
  %inc.i = add i32 %1, 1
  store i32 %inc.i, ptr %m_incr_evals.i, align 4
  %m_evaluator.i = getelementptr inbounds i8, ptr %this, i64 1184
  %call.i = tail call noundef i32 @_ZN13sls_evaluator12update_pruneEP9func_declRK3mpz(ptr noundef nonnull align 8 dereferenceable(264) %m_evaluator.i, ptr noundef %fd, ptr noundef nonnull align 8 dereferenceable(16) %temp)
  %tobool.not.i = icmp eq i32 %call.i, 0
  %m_top_sum.i.i = getelementptr inbounds i8, ptr %this, i64 1152
  %2 = load double, ptr %m_top_sum.i.i, align 8
  %retval.0.i = select i1 %tobool.not.i, double 0xFFEFFFFFFFFFFFFF, double %2
  br label %if.end

if.else:                                          ; preds = %entry
  %m_evaluator.i6 = getelementptr inbounds i8, ptr %this, i64 1184
  tail call void @_ZN13sls_evaluator6updateEP9func_declRK3mpz(ptr noundef nonnull align 8 dereferenceable(264) %m_evaluator.i6, ptr noundef %fd, ptr noundef nonnull align 8 dereferenceable(16) %temp)
  %m_incr_evals.i7 = getelementptr inbounds i8, ptr %this, i64 44
  %3 = load i32, ptr %m_incr_evals.i7, align 4
  %inc.i8 = add i32 %3, 1
  store i32 %inc.i8, ptr %m_incr_evals.i7, align 4
  %m_top_sum.i.i9 = getelementptr inbounds i8, ptr %this, i64 1152
  %4 = load double, ptr %m_top_sum.i.i9, align 8
  br label %if.end

if.end:                                           ; preds = %if.else, %if.then
  %r.0 = phi double [ %retval.0.i, %if.then ], [ %4, %if.else ]
  %5 = load double, ptr %best_score, align 8
  %cmp = fcmp ogt double %r.0, %5
  br i1 %cmp, label %if.then3, label %return

if.then3:                                         ; preds = %if.end
  store double %r.0, ptr %best_score, align 8
  %6 = load i32, ptr %fd_inx, align 4
  store i32 %6, ptr %best_const, align 4
  %m_kind.i.i = getelementptr inbounds i8, ptr %temp, i64 4
  %bf.load.i.i = load i8, ptr %m_kind.i.i, align 4
  %bf.clear.i.i = and i8 %bf.load.i.i, 1
  %cmp.i.i = icmp eq i8 %bf.clear.i.i, 0
  br i1 %cmp.i.i, label %if.then.i, label %if.else.i

if.then.i:                                        ; preds = %if.then3
  %7 = load i32, ptr %temp, align 8
  store i32 %7, ptr %best_value, align 8
  %m_kind.i = getelementptr inbounds i8, ptr %best_value, i64 4
  %bf.load.i = load i8, ptr %m_kind.i, align 4
  %bf.clear.i = and i8 %bf.load.i, -2
  store i8 %bf.clear.i, ptr %m_kind.i, align 4
  br label %return

if.else.i:                                        ; preds = %if.then3
  %m_mpz_manager = getelementptr inbounds i8, ptr %this, i64 72
  tail call void @_ZN11mpz_managerILb0EE7big_setER3mpzRKS1_(ptr noundef nonnull align 8 dereferenceable(600) %m_mpz_manager, ptr noundef nonnull align 8 dereferenceable(16) %best_value, ptr noundef nonnull align 8 dereferenceable(16) %temp)
  br label %return

return:                                           ; preds = %if.else.i, %if.then.i, %if.end
  ret i1 %cmp
}